target datalayout = "e-m:e-p270:32:32-p271:32:32-p272:64:64-i64:64-i128:128-f80:128-n8:16:32:64-S128"
target triple = "x86_64-pc-linux-gnu"

%"class.folly::symbolizer::ElfFile" = type { [512 x i8], i32, ptr, i64, %"struct.folly::symbolizer::ElfFileId", i64 }
%"struct.folly::symbolizer::ElfFileId" = type { i64, i64, i64, i64 }

; Function Attrs: mustprogress nounwind uwtable
define void @_ZN5folly10symbolizer7ElfFileC2EOS1_(ptr noundef nonnull align 8 dereferenceable(576) %0, ptr noundef nonnull align 8 dereferenceable(576) %1) unnamed_addr #0 align 2 personality ptr @__gxx_personality_v0 {
  %3 = alloca ptr, align 8
  %4 = alloca ptr, align 8
  %5 = alloca %"struct.folly::symbolizer::ElfFileId", align 8
  store ptr %0, ptr %3, align 8, !tbaa !7
  store ptr %1, ptr %4, align 8, !tbaa !7
  %6 = load ptr, ptr %3, align 8
  %7 = getelementptr inbounds nuw %"class.folly::symbolizer::ElfFile", ptr %6, i32 0, i32 0
  %8 = getelementptr inbounds i8, ptr %7, i64 512
  br label %9

9:                                                ; preds = %9, %2
  %10 = phi ptr [ %7, %2 ], [ %11, %9 ]
  store i8 0, ptr %10, align 1, !tbaa !12
  %11 = getelementptr inbounds i8, ptr %10, i64 1
  %12 = icmp eq ptr %11, %8
  br i1 %12, label %13, label %9

13:                                               ; preds = %9
  %14 = getelementptr inbounds nuw %"class.folly::symbolizer::ElfFile", ptr %6, i32 0, i32 1
  %15 = load ptr, ptr %4, align 8, !tbaa !7
  %16 = getelementptr inbounds nuw %"class.folly::symbolizer::ElfFile", ptr %15, i32 0, i32 1
  %17 = load i32, ptr %16, align 8, !tbaa !13
  store i32 %17, ptr %14, align 8, !tbaa !13
  %18 = getelementptr inbounds nuw %"class.folly::symbolizer::ElfFile", ptr %6, i32 0, i32 2
  %19 = load ptr, ptr %4, align 8, !tbaa !7
  %20 = getelementptr inbounds nuw %"class.folly::symbolizer::ElfFile", ptr %19, i32 0, i32 2
  %21 = load ptr, ptr %20, align 8, !tbaa !19
  store ptr %21, ptr %18, align 8, !tbaa !19
  %22 = getelementptr inbounds nuw %"class.folly::symbolizer::ElfFile", ptr %6, i32 0, i32 3
  %23 = load ptr, ptr %4, align 8, !tbaa !7
  %24 = getelementptr inbounds nuw %"class.folly::symbolizer::ElfFile", ptr %23, i32 0, i32 3
  %25 = load i64, ptr %24, align 8, !tbaa !20
  store i64 %25, ptr %22, align 8, !tbaa !20
  %26 = getelementptr inbounds nuw %"class.folly::symbolizer::ElfFile", ptr %6, i32 0, i32 4
  %27 = load ptr, ptr %4, align 8, !tbaa !7
  %28 = getelementptr inbounds nuw %"class.folly::symbolizer::ElfFile", ptr %27, i32 0, i32 4
  call void @llvm.memcpy.p0.p0.i64(ptr align 8 %26, ptr align 8 %28, i64 32, i1 false), !tbaa.struct !45
  %29 = getelementptr inbounds nuw %"class.folly::symbolizer::ElfFile", ptr %6, i32 0, i32 5
  %30 = load ptr, ptr %4, align 8, !tbaa !7
  %31 = getelementptr inbounds nuw %"class.folly::symbolizer::ElfFile", ptr %30, i32 0, i32 5
  %32 = load i64, ptr %31, align 8, !tbaa !21
  store i64 %32, ptr %29, align 8, !tbaa !21
  %33 = getelementptr inbounds nuw %"class.folly::symbolizer::ElfFile", ptr %6, i32 0, i32 0
  %34 = getelementptr inbounds [512 x i8], ptr %33, i64 0, i64 0
  %35 = load ptr, ptr %4, align 8, !tbaa !7
  %36 = getelementptr inbounds nuw %"class.folly::symbolizer::ElfFile", ptr %35, i32 0, i32 0
  %37 = getelementptr inbounds [512 x i8], ptr %36, i64 0, i64 0
  %38 = invoke noundef i64 @_ZN5folly7strlcpyEPcPKcm(ptr noundef %34, ptr noundef %37, i64 noundef 511)
          to label %39 unwind label %53

39:                                               ; preds = %13
  %40 = load ptr, ptr %4, align 8, !tbaa !7
  %41 = getelementptr inbounds nuw %"class.folly::symbolizer::ElfFile", ptr %40, i32 0, i32 0
  %42 = getelementptr inbounds [512 x i8], ptr %41, i64 0, i64 0
  store i8 0, ptr %42, align 8, !tbaa !12
  %43 = load ptr, ptr %4, align 8, !tbaa !7
  %44 = getelementptr inbounds nuw %"class.folly::symbolizer::ElfFile", ptr %43, i32 0, i32 1
  store i32 -1, ptr %44, align 8, !tbaa !13
  %45 = load ptr, ptr %4, align 8, !tbaa !7
  %46 = getelementptr inbounds nuw %"class.folly::symbolizer::ElfFile", ptr %45, i32 0, i32 2
  store ptr inttoptr (i64 -1 to ptr), ptr %46, align 8, !tbaa !19
  %47 = load ptr, ptr %4, align 8, !tbaa !7
  %48 = getelementptr inbounds nuw %"class.folly::symbolizer::ElfFile", ptr %47, i32 0, i32 3
  store i64 0, ptr %48, align 8, !tbaa !20
  call void @llvm.lifetime.start.p0(i64 32, ptr %5) #24
  call void @llvm.memset.p0.i64(ptr align 8 %5, i8 0, i64 32, i1 false)
  %49 = load ptr, ptr %4, align 8, !tbaa !7
  %50 = getelementptr inbounds nuw %"class.folly::symbolizer::ElfFile", ptr %49, i32 0, i32 4
  call void @llvm.memcpy.p0.p0.i64(ptr align 8 %50, ptr align 8 %5, i64 32, i1 false), !tbaa.struct !45
  call void @llvm.lifetime.end.p0(i64 32, ptr %5) #24
  %51 = load ptr, ptr %4, align 8, !tbaa !7
  %52 = getelementptr inbounds nuw %"class.folly::symbolizer::ElfFile", ptr %51, i32 0, i32 5
  store i64 0, ptr %52, align 8, !tbaa !21
  ret void

53:                                               ; preds = %13
  %54 = landingpad { ptr, i32 }
          catch ptr null
  %55 = extractvalue { ptr, i32 } %54, 0
  call void @__clang_call_terminate(ptr %55) #26
  unreachable
}