; Function Attrs: mustprogress nounwind uwtable
define void @_ZN5folly10symbolizer7ElfFileC2EOS1_(ptr noundef nonnull align 8 dereferenceable(576) initializes((0, 516), (520, 576)) %0, ptr noundef nonnull align 8 dereferenceable(576) %1) unnamed_addr #4 align 2 personality ptr @__gxx_personality_v0 {
  tail call void @llvm.memset.p0.i64(ptr noundef nonnull align 8 dereferenceable(512) %0, i8 0, i64 512, i1 false), !tbaa !7
  %3 = getelementptr inbounds nuw i8, ptr %0, i64 512
  %4 = getelementptr inbounds nuw i8, ptr %1, i64 512
  %5 = load i32, ptr %4, align 8, !tbaa !10
  store i32 %5, ptr %3, align 8, !tbaa !10
  %6 = getelementptr inbounds nuw i8, ptr %0, i64 520
  %7 = getelementptr inbounds nuw i8, ptr %1, i64 520
  %8 = load ptr, ptr %7, align 8, !tbaa !17
  store ptr %8, ptr %6, align 8, !tbaa !17
  %9 = getelementptr inbounds nuw i8, ptr %0, i64 528
  %10 = getelementptr inbounds nuw i8, ptr %1, i64 528
  %11 = load i64, ptr %10, align 8, !tbaa !39
  store i64 %11, ptr %9, align 8, !tbaa !39
  %12 = getelementptr inbounds nuw i8, ptr %0, i64 536
  %13 = getelementptr inbounds nuw i8, ptr %1, i64 536
  tail call void @llvm.memcpy.p0.p0.i64(ptr noundef nonnull align 8 dereferenceable(32) %12, ptr noundef nonnull align 8 dereferenceable(32) %13, i64 32, i1 false), !tbaa.struct !84
  %14 = getelementptr inbounds nuw i8, ptr %0, i64 568
  %15 = getelementptr inbounds nuw i8, ptr %1, i64 568
  %16 = load i64, ptr %15, align 8, !tbaa !74
  store i64 %16, ptr %14, align 8, !tbaa !74
  %17 = invoke noundef i64 @_ZN5folly7strlcpyEPcPKcm(ptr noundef nonnull %0, ptr noundef nonnull %1, i64 noundef 511)
          to label %18 unwind label %19

18:                                               ; preds = %2
  store i8 0, ptr %1, align 8, !tbaa !7
  store i32 -1, ptr %4, align 8, !tbaa !10
  store ptr inttoptr (i64 -1 to ptr), ptr %7, align 8, !tbaa !17
  store i64 0, ptr %10, align 8, !tbaa !39
  tail call void @llvm.memset.p0.i64(ptr noundef nonnull align 8 dereferenceable(32) %13, i8 0, i64 32, i1 false)
  store i64 0, ptr %15, align 8, !tbaa !74
  ret void

19:                                               ; preds = %2
  %20 = landingpad { ptr, i32 }
          catch ptr null
  %21 = extractvalue { ptr, i32 } %20, 0
  tail call void @__clang_call_terminate(ptr %21) #29
  unreachable
}